target datalayout = "e-m:e-p270:32:32-p271:32:32-p272:64:64-i64:64-i128:128-f80:128-n8:16:32:64-S128"
target triple = "x86_64-pc-linux-gnu"

%struct.job_record = type { i32, ptr, ptr, ptr, ptr, i16, i32, i32, i32, ptr, i32, ptr, ptr, i16, ptr, double, i64, ptr, ptr, ptr, ptr, ptr, ptr, i32, ptr, i32, i64, i64, i32, i32, ptr, i16, i64, i64, i8, i32, ptr, ptr, ptr, ptr, ptr, ptr, ptr, ptr, i32, ptr, ptr, i32, ptr, i32, ptr, i32, ptr, i32, ptr, ptr, ptr, ptr, ptr, ptr, i32, i16, i64, ptr, ptr, ptr, ptr, %struct.acct_policy_limit_set_t, i16, ptr, ptr, ptr, ptr, ptr, i32, ptr, ptr, ptr, ptr, ptr, i32, i32, ptr, ptr, ptr, i16, ptr, ptr, i8, ptr, ptr, i64, i64, i8, i32, i32, i8, i32, ptr, i32, i64, i32, ptr, ptr, ptr, i8, i16, i64, i32, ptr, ptr, ptr, ptr, ptr, i16, i32, ptr, ptr, ptr, ptr, i32, ptr, i32, i16, i64, ptr, i32, i32, ptr, i64, ptr, ptr, i64, i32, i32, i64, i32, i32, ptr, ptr, ptr, ptr, ptr, ptr, ptr, ptr, ptr, ptr, ptr, ptr, i32, ptr, i16, i16, i16, i16, ptr, i32, i32, i8, i64 }
%struct.acct_policy_limit_set_t = type { i16, i16, ptr }
%struct.job_descriptor = type { ptr, ptr, ptr, ptr, i16, i32, i32, ptr, ptr, ptr, ptr, i64, i64, ptr, ptr, ptr, ptr, i16, ptr, ptr, i16, ptr, i16, i32, i32, i32, ptr, ptr, i64, i32, ptr, i64, ptr, %struct.slurm_hash_t, i32, ptr, ptr, ptr, i64, i64, i32, i32, ptr, i16, i32, ptr, ptr, i16, ptr, ptr, i16, ptr, ptr, ptr, i16, ptr, ptr, ptr, i32, i32, i16, i8, ptr, i16, i8, ptr, i16, ptr, i32, i32, ptr, i16, ptr, i16, ptr, i16, ptr, i16, ptr, ptr, %struct.slurm_hash_t, i16, i32, ptr, i32, ptr, i32, i32, i32, ptr, ptr, ptr, ptr, ptr, ptr, i32, i16, i16, i16, i16, ptr, i16, i32, i32, i32, i32, i16, i16, i16, i16, i16, i16, i16, i16, i16, i16, i16, i64, i32, ptr, i32, i16, ptr, ptr, ptr, ptr, ptr, i32, ptr, i16, ptr, ptr, i16 }
%struct.slurm_hash_t = type { i8, [32 x i8] }

@slurmctld_tres_cnt = external global i32, align 4
@accounting_enforce = external global i16, align 2
@.str.18 = private unnamed_addr constant [43 x i8] c"acct_policy_update_pending_job: no details\00", align 1
@.str.19 = private unnamed_addr constant [71 x i8] c"%s: exceeded association/qos's cpu, node, memory or time limit for %pJ\00", align 1
@__func__.acct_policy_update_pending_job = private unnamed_addr constant [31 x i8] c"acct_policy_update_pending_job\00", align 1
@last_job_update = external global i64, align 8
@.str.20 = private unnamed_addr constant [44 x i8] c"limits changed for %pJ: updating accounting\00", align 1
@acct_db_conn = external global ptr, align 8

; Function Attrs: nounwind uwtable
define dso_local i32 @acct_policy_update_pending_job(ptr noundef %0) #0 {
  %2 = alloca i32, align 4
  %3 = alloca ptr, align 8
  %4 = alloca %struct.job_descriptor, align 8
  %5 = alloca %struct.acct_policy_limit_set_t, align 8
  %6 = alloca i8, align 1
  %7 = alloca ptr, align 8
  %8 = alloca i32, align 4
  %9 = alloca ptr, align 8
  %10 = alloca i64, align 8
  %11 = alloca i32, align 4
  store ptr %0, ptr %3, align 8
  call void @llvm.lifetime.start.p0(i64 912, ptr %4) #8
  call void @llvm.lifetime.start.p0(i64 16, ptr %5) #8
  call void @llvm.lifetime.start.p0(i64 1, ptr %6) #8
  store i8 0, ptr %6, align 1
  call void @llvm.lifetime.start.p0(i64 8, ptr %7) #8
  call void @llvm.lifetime.start.p0(i64 4, ptr %8) #8
  store i32 0, ptr %8, align 4
  %12 = load i32, ptr @slurmctld_tres_cnt, align 4
  %13 = zext i32 %12 to i64
  %14 = call ptr @llvm.stacksave.p0()
  store ptr %14, ptr %9, align 8
  %15 = alloca i64, i64 %13, align 16
  store i64 %13, ptr %10, align 8
  %16 = load i16, ptr @accounting_enforce, align 2
  %17 = icmp ne i16 %16, 0
  br i1 %17, label %18, label %29

18:                                               ; preds = %1
  %19 = load ptr, ptr %3, align 8
  %20 = getelementptr inbounds nuw %struct.job_record, ptr %19, i32 0, i32 60
  %21 = load i32, ptr %20, align 8
  %22 = and i32 %21, 255
  %23 = icmp eq i32 %22, 0
  br i1 %23, label %24, label %29

24:                                               ; preds = %18
  %25 = load i16, ptr @accounting_enforce, align 2
  %26 = zext i16 %25 to i64
  %27 = and i64 %26, 2
  %28 = icmp ne i64 %27, 0
  br i1 %28, label %30, label %29

29:                                               ; preds = %24, %18, %1
  store i32 0, ptr %2, align 4
  store i32 1, ptr %11, align 4
  br label %169

30:                                               ; preds = %24
  %31 = load ptr, ptr %3, align 8
  %32 = getelementptr inbounds nuw %struct.job_record, ptr %31, i32 0, i32 30
  %33 = load ptr, ptr %32, align 8
  store ptr %33, ptr %7, align 8
  %34 = load ptr, ptr %7, align 8
  %35 = icmp ne ptr %34, null
  br i1 %35, label %38, label %36

36:                                               ; preds = %30
  %37 = call i32 (ptr, ...) @error(ptr noundef @.str.18)
  store i32 -1, ptr %2, align 4
  store i32 1, ptr %11, align 4
  br label %169

38:                                               ; preds = %30
  call void @slurm_init_job_desc_msg(ptr noundef %4)
  %39 = load ptr, ptr %3, align 8
  %40 = getelementptr inbounds nuw %struct.job_record, ptr %39, i32 0, i32 67
  call void @llvm.memcpy.p0.p0.i64(ptr align 8 %5, ptr align 8 %40, i64 16, i1 false)
  %41 = getelementptr inbounds nuw %struct.job_descriptor, ptr %4, i32 0, i32 126
  store ptr %15, ptr %41, align 8
  %42 = getelementptr inbounds nuw %struct.job_descriptor, ptr %4, i32 0, i32 126
  %43 = load ptr, ptr %42, align 8
  %44 = load ptr, ptr %3, align 8
  %45 = getelementptr inbounds nuw %struct.job_record, ptr %44, i32 0, i32 144
  %46 = load ptr, ptr %45, align 8
  %47 = load i32, ptr @slurmctld_tres_cnt, align 4
  %48 = sext i32 %47 to i64
  %49 = mul i64 8, %48
  call void @llvm.memcpy.p0.p0.i64(ptr align 8 %43, ptr align 8 %46, i64 %49, i1 false)
  %50 = load ptr, ptr %3, align 8
  %51 = getelementptr inbounds nuw %struct.job_record, ptr %50, i32 0, i32 67
  %52 = getelementptr inbounds nuw %struct.acct_policy_limit_set_t, ptr %51, i32 0, i32 1
  %53 = load i16, ptr %52, align 2
  %54 = zext i16 %53 to i32
  %55 = icmp eq i32 %54, 65535
  br i1 %55, label %56, label %62

56:                                               ; preds = %38
  %57 = load ptr, ptr %3, align 8
  %58 = getelementptr inbounds nuw %struct.job_record, ptr %57, i32 0, i32 67
  %59 = getelementptr inbounds nuw %struct.acct_policy_limit_set_t, ptr %58, i32 0, i32 1
  %60 = load i16, ptr %59, align 2
  %61 = getelementptr inbounds nuw %struct.acct_policy_limit_set_t, ptr %5, i32 0, i32 1
  store i16 %60, ptr %61, align 2
  br label %79

62:                                               ; preds = %38
  %63 = load ptr, ptr %3, align 8
  %64 = getelementptr inbounds nuw %struct.job_record, ptr %63, i32 0, i32 133
  %65 = load i32, ptr %64, align 8
  %66 = icmp ne i32 %65, -2
  br i1 %66, label %67, label %78

67:                                               ; preds = %62
  %68 = load ptr, ptr %3, align 8
  %69 = getelementptr inbounds nuw %struct.job_record, ptr %68, i32 0, i32 67
  %70 = getelementptr inbounds nuw %struct.acct_policy_limit_set_t, ptr %69, i32 0, i32 1
  %71 = load i16, ptr %70, align 2
  %72 = icmp ne i16 %71, 0
  br i1 %72, label %78, label %73

73:                                               ; preds = %67
  %74 = load ptr, ptr %3, align 8
  %75 = getelementptr inbounds nuw %struct.job_record, ptr %74, i32 0, i32 133
  %76 = load i32, ptr %75, align 8
  %77 = getelementptr inbounds nuw %struct.job_descriptor, ptr %4, i32 0, i32 87
  store i32 %76, ptr %77, align 4
  br label %78

78:                                               ; preds = %73, %67, %62
  br label %79

79:                                               ; preds = %78, %56
  %80 = load ptr, ptr %3, align 8
  %81 = getelementptr inbounds nuw %struct.job_record, ptr %80, i32 0, i32 89
  %82 = load ptr, ptr %81, align 8
  %83 = load ptr, ptr %3, align 8
  %84 = getelementptr inbounds nuw %struct.job_record, ptr %83, i32 0, i32 87
  %85 = load ptr, ptr %84, align 8
  %86 = load ptr, ptr %3, align 8
  %87 = getelementptr inbounds nuw %struct.job_record, ptr %86, i32 0, i32 11
  %88 = load ptr, ptr %87, align 8
  %89 = load ptr, ptr %3, align 8
  %90 = getelementptr inbounds nuw %struct.job_record, ptr %89, i32 0, i32 103
  %91 = load ptr, ptr %90, align 8
  %92 = load ptr, ptr %3, align 8
  %93 = getelementptr inbounds nuw %struct.job_record, ptr %92, i32 0, i32 126
  %94 = call zeroext i1 @acct_policy_validate(ptr noundef %4, ptr noundef %82, ptr noundef %85, ptr noundef %88, ptr noundef %91, ptr noundef %93, ptr noundef %5, i1 noundef zeroext false)
  br i1 %94, label %107, label %95

95:                                               ; preds = %79
  br label %96

96:                                               ; preds = %95
  br label %97

97:                                               ; preds = %96
  %98 = call i32 @get_log_level()
  %99 = icmp sge i32 %98, 3
  br i1 %99, label %100, label %102

100:                                              ; preds = %97
  %101 = load ptr, ptr %3, align 8
  call void (i32, ptr, ...) @log_var(i32 noundef 3, ptr noundef @.str.19, ptr noundef @__func__.acct_policy_update_pending_job, ptr noundef %101)
  br label %102

102:                                              ; preds = %100, %97
  br label %103

103:                                              ; preds = %102
  br label %104

104:                                              ; preds = %103
  br label %105

105:                                              ; preds = %104
  br label %106

106:                                              ; preds = %105
  store i32 -1, ptr %2, align 4
  store i32 1, ptr %11, align 4
  br label %169

107:                                              ; preds = %79
  %108 = getelementptr inbounds nuw %struct.acct_policy_limit_set_t, ptr %5, i32 0, i32 1
  %109 = load i16, ptr %108, align 2
  %110 = icmp ne i16 %109, 0
  br i1 %110, label %124, label %111

111:                                              ; preds = %107
  %112 = load ptr, ptr %3, align 8
  %113 = getelementptr inbounds nuw %struct.job_record, ptr %112, i32 0, i32 67
  %114 = getelementptr inbounds nuw %struct.acct_policy_limit_set_t, ptr %113, i32 0, i32 1
  %115 = load i16, ptr %114, align 2
  %116 = zext i16 %115 to i32
  %117 = icmp eq i32 %116, 1
  br i1 %117, label %118, label %124

118:                                              ; preds = %111
  %119 = load ptr, ptr %3, align 8
  %120 = getelementptr inbounds nuw %struct.job_record, ptr %119, i32 0, i32 133
  store i32 -2, ptr %120, align 8
  %121 = load ptr, ptr %3, align 8
  %122 = getelementptr inbounds nuw %struct.job_record, ptr %121, i32 0, i32 67
  %123 = getelementptr inbounds nuw %struct.acct_policy_limit_set_t, ptr %122, i32 0, i32 1
  store i16 0, ptr %123, align 2
  store i8 1, ptr %6, align 1
  br label %148

124:                                              ; preds = %111, %107
  %125 = getelementptr inbounds nuw %struct.acct_policy_limit_set_t, ptr %5, i32 0, i32 1
  %126 = load i16, ptr %125, align 2
  %127 = zext i16 %126 to i32
  %128 = icmp ne i32 %127, 65535
  br i1 %128, label %129, label %147

129:                                              ; preds = %124
  %130 = load ptr, ptr %3, align 8
  %131 = getelementptr inbounds nuw %struct.job_record, ptr %130, i32 0, i32 133
  %132 = load i32, ptr %131, align 8
  %133 = getelementptr inbounds nuw %struct.job_descriptor, ptr %4, i32 0, i32 87
  %134 = load i32, ptr %133, align 4
  %135 = icmp ne i32 %132, %134
  br i1 %135, label %136, label %141

136:                                              ; preds = %129
  %137 = getelementptr inbounds nuw %struct.job_descriptor, ptr %4, i32 0, i32 87
  %138 = load i32, ptr %137, align 4
  %139 = load ptr, ptr %3, align 8
  %140 = getelementptr inbounds nuw %struct.job_record, ptr %139, i32 0, i32 133
  store i32 %138, ptr %140, align 8
  store i8 1, ptr %6, align 1
  br label %141

141:                                              ; preds = %136, %129
  %142 = getelementptr inbounds nuw %struct.acct_policy_limit_set_t, ptr %5, i32 0, i32 1
  %143 = load i16, ptr %142, align 2
  %144 = load ptr, ptr %3, align 8
  %145 = getelementptr inbounds nuw %struct.job_record, ptr %144, i32 0, i32 67
  %146 = getelementptr inbounds nuw %struct.acct_policy_limit_set_t, ptr %145, i32 0, i32 1
  store i16 %143, ptr %146, align 2
  br label %147

147:                                              ; preds = %141, %124
  br label %148

148:                                              ; preds = %147, %118
  %149 = load i8, ptr %6, align 1, !range !8, !noundef !9
  %150 = trunc i8 %149 to i1
  br i1 %150, label %151, label %167

151:                                              ; preds = %148
  %152 = call i64 @time(ptr noundef null) #8
  store i64 %152, ptr @last_job_update, align 8
  br label %153

153:                                              ; preds = %151
  br label %154

154:                                              ; preds = %153
  %155 = call i32 @get_log_level()
  %156 = icmp sge i32 %155, 5
  br i1 %156, label %157, label %159

157:                                              ; preds = %154
  %158 = load ptr, ptr %3, align 8
  call void (i32, ptr, ...) @log_var(i32 noundef 5, ptr noundef @.str.20, ptr noundef %158)
  br label %159

159:                                              ; preds = %157, %154
  br label %160

160:                                              ; preds = %159
  br label %161

161:                                              ; preds = %160
  br label %162

162:                                              ; preds = %161
  br label %163

163:                                              ; preds = %162
  %164 = load ptr, ptr @acct_db_conn, align 8
  %165 = load ptr, ptr %3, align 8
  %166 = call i32 @jobacct_storage_g_job_start(ptr noundef %164, ptr noundef %165)
  br label %167

167:                                              ; preds = %163, %148
  %168 = load i32, ptr %8, align 4
  store i32 %168, ptr %2, align 4
  store i32 1, ptr %11, align 4
  br label %169

169:                                              ; preds = %167, %106, %36, %29
  %170 = load ptr, ptr %9, align 8
  call void @llvm.stackrestore.p0(ptr %170)
  call void @llvm.lifetime.end.p0(i64 4, ptr %8) #8
  call void @llvm.lifetime.end.p0(i64 8, ptr %7) #8
  call void @llvm.lifetime.end.p0(i64 1, ptr %6) #8
  call void @llvm.lifetime.end.p0(i64 16, ptr %5) #8
  call void @llvm.lifetime.end.p0(i64 912, ptr %4) #8
  %171 = load i32, ptr %2, align 4
  ret i32 %171
}