; Function Attrs: nounwind uwtable
define dso_local range(i32 -1, 1) i32 @acct_policy_update_pending_job(ptr noundef %0) local_unnamed_addr #0 {
  %2 = alloca %struct.job_descriptor, align 8
  %3 = alloca %struct.acct_policy_limit_set_t, align 8
  call void @llvm.lifetime.start.p0(i64 912, ptr nonnull %2) #15
  call void @llvm.lifetime.start.p0(i64 16, ptr nonnull %3) #15
  %4 = load i32, ptr @slurmctld_tres_cnt, align 4
  %5 = zext i32 %4 to i64
  %6 = tail call ptr @llvm.stacksave.p0()
  %7 = alloca i64, i64 %5, align 16
  %8 = load i16, ptr @accounting_enforce, align 2
  %.not = icmp eq i16 %8, 0
  br i1 %.not, label %.critedge, label %9

9:                                                ; preds = %1
  %10 = getelementptr inbounds nuw i8, ptr %0, i64 448
  %11 = load i32, ptr %10, align 8
  %12 = and i32 %11, 255
  %13 = icmp ne i32 %12, 0
  %14 = and i16 %8, 2
  %.not31 = icmp eq i16 %14, 0
  %or.cond = or i1 %.not31, %13
  br i1 %or.cond, label %.critedge, label %15

15:                                               ; preds = %9
  %16 = getelementptr inbounds nuw i8, ptr %0, i64 216
  %17 = load ptr, ptr %16, align 8
  %.not32 = icmp eq ptr %17, null
  br i1 %.not32, label %18, label %20

18:                                               ; preds = %15
  %19 = tail call i32 (ptr, ...) @error(ptr noundef nonnull @.str.18) #15
  br label %.critedge

20:                                               ; preds = %15
  call void @slurm_init_job_desc_msg(ptr noundef nonnull %2) #15
  %21 = getelementptr inbounds nuw i8, ptr %0, i64 496
  call void @llvm.memcpy.p0.p0.i64(ptr noundef nonnull align 8 dereferenceable(16) %3, ptr noundef nonnull align 8 dereferenceable(16) %21, i64 16, i1 false)
  %22 = getelementptr inbounds nuw i8, ptr %2, i64 856
  store ptr %7, ptr %22, align 8
  %23 = getelementptr inbounds nuw i8, ptr %0, i64 1048
  %24 = load ptr, ptr %23, align 8
  %25 = load i32, ptr @slurmctld_tres_cnt, align 4
  %26 = sext i32 %25 to i64
  %27 = shl nsw i64 %26, 3
  call void @llvm.memcpy.p0.p0.i64(ptr nonnull align 16 %7, ptr align 8 %24, i64 %27, i1 false)
  %28 = getelementptr inbounds nuw i8, ptr %0, i64 498
  %29 = load i16, ptr %28, align 2
  %30 = icmp eq i16 %29, -1
  br i1 %30, label %31, label %33

31:                                               ; preds = %20
  %32 = getelementptr inbounds nuw i8, ptr %3, i64 2
  store i16 -1, ptr %32, align 2
  br label %38

33:                                               ; preds = %20
  %34 = getelementptr inbounds nuw i8, ptr %0, i64 976
  %35 = load i32, ptr %34, align 8
  %.not33 = icmp ne i32 %35, -2
  %.not34 = icmp eq i16 %29, 0
  %or.cond38 = and i1 %.not34, %.not33
  br i1 %or.cond38, label %36, label %38

36:                                               ; preds = %33
  %37 = getelementptr inbounds nuw i8, ptr %2, i64 660
  store i32 %35, ptr %37, align 4
  br label %38

38:                                               ; preds = %33, %36, %31
  %39 = getelementptr inbounds nuw i8, ptr %0, i64 672
  %40 = load ptr, ptr %39, align 8
  %41 = getelementptr inbounds nuw i8, ptr %0, i64 656
  %42 = load ptr, ptr %41, align 8
  %43 = getelementptr inbounds nuw i8, ptr %0, i64 72
  %44 = load ptr, ptr %43, align 8
  %45 = getelementptr inbounds nuw i8, ptr %0, i64 768
  %46 = load ptr, ptr %45, align 8
  %47 = getelementptr inbounds nuw i8, ptr %0, i64 928
  %48 = call zeroext i1 @acct_policy_validate(ptr noundef nonnull %2, ptr noundef %40, ptr noundef %42, ptr noundef %44, ptr noundef %46, ptr noundef nonnull %47, ptr noundef nonnull %3, i1 noundef zeroext false)
  br i1 %48, label %53, label %49

49:                                               ; preds = %38
  %50 = call i32 @get_log_level() #15
  %51 = icmp sgt i32 %50, 2
  br i1 %51, label %52, label %.critedge

52:                                               ; preds = %49
  call void (i32, ptr, ...) @log_var(i32 noundef 3, ptr noundef nonnull @.str.19, ptr noundef nonnull @__func__.acct_policy_update_pending_job, ptr noundef nonnull %0) #15
  br label %.critedge

53:                                               ; preds = %38
  %54 = getelementptr inbounds nuw i8, ptr %3, i64 2
  %55 = load i16, ptr %54, align 2
  switch i16 %55, label %.thread [
    i16 0, label %56
    i16 -1, label %.critedge
  ]

56:                                               ; preds = %53
  %57 = load i16, ptr %28, align 2
  %58 = icmp eq i16 %57, 1
  br i1 %58, label %.critedge40, label %.thread

.critedge40:                                      ; preds = %56
  %59 = getelementptr inbounds nuw i8, ptr %0, i64 976
  store i32 -2, ptr %59, align 8
  br label %65

.thread:                                          ; preds = %53, %56
  %60 = getelementptr inbounds nuw i8, ptr %0, i64 976
  %61 = load i32, ptr %60, align 8
  %62 = getelementptr inbounds nuw i8, ptr %2, i64 660
  %63 = load i32, ptr %62, align 4
  %.not37.not = icmp eq i32 %61, %63
  br i1 %.not37.not, label %.critedge.critedge, label %64

64:                                               ; preds = %.thread
  store i32 %63, ptr %60, align 8
  br label %65

65:                                               ; preds = %64, %.critedge40
  store i16 %55, ptr %28, align 2
  %66 = call i64 @time(ptr noundef null) #15
  store i64 %66, ptr @last_job_update, align 8
  %67 = call i32 @get_log_level() #15
  %68 = icmp sgt i32 %67, 4
  br i1 %68, label %69, label %70

69:                                               ; preds = %65
  call void (i32, ptr, ...) @log_var(i32 noundef 5, ptr noundef nonnull @.str.20, ptr noundef nonnull %0) #15
  br label %70

70:                                               ; preds = %69, %65
  %71 = load ptr, ptr @acct_db_conn, align 8
  %72 = call i32 @jobacct_storage_g_job_start(ptr noundef %71, ptr noundef nonnull %0) #15
  br label %.critedge

.critedge.critedge:                               ; preds = %.thread
  store i16 %55, ptr %28, align 2
  br label %.critedge

.critedge:                                        ; preds = %53, %.critedge.critedge, %70, %49, %52, %1, %9, %18
  %.0 = phi i32 [ -1, %18 ], [ 0, %9 ], [ 0, %1 ], [ -1, %52 ], [ -1, %49 ], [ 0, %70 ], [ 0, %.critedge.critedge ], [ 0, %53 ]
  call void @llvm.stackrestore.p0(ptr %6)
  call void @llvm.lifetime.end.p0(i64 16, ptr nonnull %3) #15
  call void @llvm.lifetime.end.p0(i64 912, ptr nonnull %2) #15
  ret i32 %.0
}